target datalayout = "e-m:e-p270:32:32-p271:32:32-p272:64:64-i64:64-i128:128-f80:128-n8:16:32:64-S128"
target triple = "x86_64-pc-linux-gnu"

@.str = private unnamed_addr constant [38 x i8] c"short address (no length for payload)\00", align 1
@.str.1 = private unnamed_addr constant [47 x i8] c"short address, packet says %d, we have %d left\00", align 1
@.str.2 = private unnamed_addr constant [20 x i8] c"Area address (%d): \00", align 1
@.str.3 = private unnamed_addr constant [5 x i8] c"%02x\00", align 1
@.str.4 = private unnamed_addr constant [2 x i8] c".\00", align 1

; Function Attrs: null_pointer_is_valid sspstrong uwtable
define hidden void @isis_dissect_area_address_clv(ptr noundef %0, ptr noundef %1, ptr noundef %2, ptr noundef %3, i32 noundef %4, i32 noundef %5, i32 noundef %6) #0 {
  %8 = alloca ptr, align 8
  %9 = alloca ptr, align 8
  %10 = alloca ptr, align 8
  %11 = alloca ptr, align 8
  %12 = alloca i32, align 4
  %13 = alloca i32, align 4
  %14 = alloca i32, align 4
  %15 = alloca i32, align 4
  %16 = alloca i32, align 4
  %17 = alloca i32, align 4
  %18 = alloca ptr, align 8
  store ptr %0, ptr %8, align 8
  store ptr %1, ptr %9, align 8
  store ptr %2, ptr %10, align 8
  store ptr %3, ptr %11, align 8
  store i32 %4, ptr %12, align 4
  store i32 %5, ptr %13, align 4
  store i32 %6, ptr %14, align 4
  call void @llvm.lifetime.start.p0(i64 4, ptr %15) #3
  call void @llvm.lifetime.start.p0(i64 4, ptr %16) #3
  br label %19

19:                                               ; preds = %91, %7
  %20 = load i32, ptr %14, align 4
  %21 = icmp sgt i32 %20, 0
  br i1 %21, label %22, label %99

22:                                               ; preds = %19
  %23 = load ptr, ptr %10, align 8
  %24 = load i32, ptr %13, align 4
  %25 = call zeroext i8 @tvb_get_uint8(ptr noundef %23, i32 noundef %24)
  %26 = zext i8 %25 to i32
  store i32 %26, ptr %15, align 4
  %27 = load i32, ptr %14, align 4
  %28 = add i32 %27, -1
  store i32 %28, ptr %14, align 4
  %29 = load i32, ptr %14, align 4
  %30 = icmp sle i32 %29, 0
  br i1 %30, label %31, label %38

31:                                               ; preds = %22
  %32 = load ptr, ptr %8, align 8
  %33 = load ptr, ptr %9, align 8
  %34 = load ptr, ptr %11, align 8
  %35 = load ptr, ptr %10, align 8
  %36 = load i32, ptr %13, align 4
  %37 = call ptr (ptr, ptr, ptr, ptr, i32, i32, ptr, ...) @proto_tree_add_expert_format(ptr noundef %32, ptr noundef %33, ptr noundef %34, ptr noundef %35, i32 noundef %36, i32 noundef -1, ptr noundef @.str)
  store i32 1, ptr %17, align 4
  br label %100

38:                                               ; preds = %22
  %39 = load i32, ptr %15, align 4
  %40 = load i32, ptr %14, align 4
  %41 = icmp sgt i32 %39, %40
  br i1 %41, label %42, label %51

42:                                               ; preds = %38
  %43 = load ptr, ptr %8, align 8
  %44 = load ptr, ptr %9, align 8
  %45 = load ptr, ptr %11, align 8
  %46 = load ptr, ptr %10, align 8
  %47 = load i32, ptr %13, align 4
  %48 = load i32, ptr %15, align 4
  %49 = load i32, ptr %14, align 4
  %50 = call ptr (ptr, ptr, ptr, ptr, i32, i32, ptr, ...) @proto_tree_add_expert_format(ptr noundef %43, ptr noundef %44, ptr noundef %45, ptr noundef %46, i32 noundef %47, i32 noundef -1, ptr noundef @.str.1, i32 noundef %48, i32 noundef %49)
  store i32 1, ptr %17, align 4
  br label %100

51:                                               ; preds = %38
  %52 = load ptr, ptr %8, align 8
  %53 = icmp ne ptr %52, null
  br i1 %53, label %54, label %91

54:                                               ; preds = %51
  call void @llvm.lifetime.start.p0(i64 8, ptr %18) #3
  %55 = load ptr, ptr %8, align 8
  %56 = load i32, ptr %12, align 4
  %57 = load ptr, ptr %10, align 8
  %58 = load i32, ptr %13, align 4
  %59 = load i32, ptr %15, align 4
  %60 = add i32 %59, 1
  %61 = load i32, ptr %15, align 4
  %62 = call ptr (ptr, i32, ptr, i32, i32, ptr, ptr, ...) @proto_tree_add_bytes_format(ptr noundef %55, i32 noundef %56, ptr noundef %57, i32 noundef %58, i32 noundef %60, ptr noundef null, ptr noundef @.str.2, i32 noundef %61)
  store ptr %62, ptr %18, align 8
  store i32 0, ptr %16, align 4
  br label %63

63:                                               ; preds = %87, %54
  %64 = load i32, ptr %16, align 4
  %65 = load i32, ptr %15, align 4
  %66 = icmp slt i32 %64, %65
  br i1 %66, label %67, label %90

67:                                               ; preds = %63
  %68 = load ptr, ptr %18, align 8
  %69 = load ptr, ptr %10, align 8
  %70 = load i32, ptr %13, align 4
  %71 = load i32, ptr %16, align 4
  %72 = add i32 %70, %71
  %73 = add i32 %72, 1
  %74 = call zeroext i8 @tvb_get_uint8(ptr noundef %69, i32 noundef %73)
  %75 = zext i8 %74 to i32
  call void (ptr, ptr, ...) @proto_item_append_text(ptr noundef %68, ptr noundef @.str.3, i32 noundef %75)
  %76 = load i32, ptr %16, align 4
  %77 = and i32 %76, 1
  %78 = icmp eq i32 %77, 0
  br i1 %78, label %79, label %86

79:                                               ; preds = %67
  %80 = load i32, ptr %16, align 4
  %81 = add i32 %80, 1
  %82 = load i32, ptr %15, align 4
  %83 = icmp slt i32 %81, %82
  br i1 %83, label %84, label %86

84:                                               ; preds = %79
  %85 = load ptr, ptr %18, align 8
  call void (ptr, ptr, ...) @proto_item_append_text(ptr noundef %85, ptr noundef @.str.4)
  br label %86

86:                                               ; preds = %84, %79, %67
  br label %87

87:                                               ; preds = %86
  %88 = load i32, ptr %16, align 4
  %89 = add i32 %88, 1
  store i32 %89, ptr %16, align 4
  br label %63, !llvm.loop !6

90:                                               ; preds = %63
  call void @llvm.lifetime.end.p0(i64 8, ptr %18) #3
  br label %91

91:                                               ; preds = %90, %51
  %92 = load i32, ptr %15, align 4
  %93 = add i32 %92, 1
  %94 = load i32, ptr %13, align 4
  %95 = add i32 %94, %93
  store i32 %95, ptr %13, align 4
  %96 = load i32, ptr %15, align 4
  %97 = load i32, ptr %14, align 4
  %98 = sub i32 %97, %96
  store i32 %98, ptr %14, align 4
  br label %19, !llvm.loop !8

99:                                               ; preds = %19
  store i32 0, ptr %17, align 4
  br label %100

100:                                              ; preds = %99, %42, %31
  call void @llvm.lifetime.end.p0(i64 4, ptr %16) #3
  call void @llvm.lifetime.end.p0(i64 4, ptr %15) #3
  %101 = load i32, ptr %17, align 4
  switch i32 %101, label %103 [
    i32 0, label %102
    i32 1, label %102
  ]

102:                                              ; preds = %100, %100
  ret void

103:                                              ; preds = %100
  unreachable
}