; Function Attrs: null_pointer_is_valid sspstrong uwtable
define hidden void @isis_dissect_area_address_clv(ptr noundef %0, ptr noundef %1, ptr noundef %2, ptr noundef %3, i32 noundef %4, i32 noundef %5, i32 noundef %6) local_unnamed_addr #0 {
  %8 = icmp sgt i32 %6, 0
  br i1 %8, label %.lr.ph56, label %.loopexit47

.lr.ph56:                                         ; preds = %7
  %.not45 = icmp eq ptr %0, null
  br i1 %.not45, label %.lr.ph56.split.us, label %.lr.ph56.split

.lr.ph56.split.us:                                ; preds = %.lr.ph56, %14
  %.055.us = phi i32 [ %16, %14 ], [ %5, %.lr.ph56 ]
  %.04154.us = phi i32 [ %17, %14 ], [ %6, %.lr.ph56 ]
  %9 = tail call zeroext i8 @tvb_get_uint8(ptr noundef %2, i32 noundef %.055.us)
  %10 = zext i8 %9 to i32
  %11 = add nsw i32 %.04154.us, -1
  %12 = icmp eq i32 %.04154.us, 1
  br i1 %12, label %.split.us, label %13

13:                                               ; preds = %.lr.ph56.split.us
  %.not.us = icmp samesign ugt i32 %.04154.us, %10
  br i1 %.not.us, label %14, label %.split58.us

14:                                               ; preds = %13
  %15 = add i32 %.055.us, 1
  %16 = add i32 %15, %10
  %17 = sub nsw i32 %11, %10
  %18 = icmp sgt i32 %17, 0
  br i1 %18, label %.lr.ph56.split.us, label %.loopexit47, !llvm.loop !6

.lr.ph56.split:                                   ; preds = %.lr.ph56, %.loopexit
  %.055 = phi i32 [ %39, %.loopexit ], [ %5, %.lr.ph56 ]
  %.04154 = phi i32 [ %40, %.loopexit ], [ %6, %.lr.ph56 ]
  %19 = tail call zeroext i8 @tvb_get_uint8(ptr noundef %2, i32 noundef %.055)
  %20 = zext i8 %19 to i32
  %21 = add nsw i32 %.04154, -1
  %22 = icmp eq i32 %.04154, 1
  br i1 %22, label %.split.us, label %24

.split.us:                                        ; preds = %.lr.ph56.split, %.lr.ph56.split.us
  %.us-phi = phi i32 [ %.055.us, %.lr.ph56.split.us ], [ %.055, %.lr.ph56.split ]
  %23 = tail call ptr (ptr, ptr, ptr, ptr, i32, i32, ptr, ...) @proto_tree_add_expert_format(ptr noundef %0, ptr noundef %1, ptr noundef %3, ptr noundef %2, i32 noundef %.us-phi, i32 noundef -1, ptr noundef nonnull @.str)
  br label %.loopexit47

24:                                               ; preds = %.lr.ph56.split
  %.not = icmp samesign ugt i32 %.04154, %20
  br i1 %.not, label %26, label %.split58.us

.split58.us:                                      ; preds = %24, %13
  %.us-phi59 = phi i32 [ %10, %13 ], [ %20, %24 ]
  %.us-phi60 = phi i32 [ %11, %13 ], [ %21, %24 ]
  %.us-phi61 = phi i32 [ %.055.us, %13 ], [ %.055, %24 ]
  %25 = tail call ptr (ptr, ptr, ptr, ptr, i32, i32, ptr, ...) @proto_tree_add_expert_format(ptr noundef %0, ptr noundef %1, ptr noundef %3, ptr noundef %2, i32 noundef %.us-phi61, i32 noundef -1, ptr noundef nonnull @.str.1, i32 noundef %.us-phi59, i32 noundef %.us-phi60)
  br label %.loopexit47

26:                                               ; preds = %24
  %27 = add nuw nsw i32 %20, 1
  %28 = tail call ptr (ptr, i32, ptr, i32, i32, ptr, ptr, ...) @proto_tree_add_bytes_format(ptr noundef nonnull %0, i32 noundef %4, ptr noundef %2, i32 noundef %.055, i32 noundef %27, ptr noundef null, ptr noundef nonnull @.str.2, i32 noundef %20)
  %.not62 = icmp eq i8 %19, 0
  %.pre = add i32 %.055, 1
  br i1 %.not62, label %.loopexit, label %.lr.ph

.lr.ph:                                           ; preds = %26, %37
  %.04053 = phi i32 [ %38, %37 ], [ 0, %26 ]
  %29 = add i32 %.pre, %.04053
  %30 = tail call zeroext i8 @tvb_get_uint8(ptr noundef %2, i32 noundef %29)
  %31 = zext i8 %30 to i32
  tail call void (ptr, ptr, ...) @proto_item_append_text(ptr noundef %28, ptr noundef nonnull @.str.3, i32 noundef %31)
  %32 = and i32 %.04053, 1
  %33 = icmp eq i32 %32, 0
  %34 = or disjoint i32 %.04053, 1
  %35 = icmp samesign ult i32 %34, %20
  %or.cond = select i1 %33, i1 %35, i1 false
  br i1 %or.cond, label %36, label %37

36:                                               ; preds = %.lr.ph
  tail call void (ptr, ptr, ...) @proto_item_append_text(ptr noundef %28, ptr noundef nonnull @.str.4)
  br label %37

37:                                               ; preds = %.lr.ph, %36
  %38 = add nuw nsw i32 %.04053, 1
  %exitcond.not = icmp eq i32 %38, %20
  br i1 %exitcond.not, label %.loopexit, label %.lr.ph, !llvm.loop !8

.loopexit:                                        ; preds = %37, %26
  %39 = add i32 %.pre, %20
  %40 = sub nsw i32 %21, %20
  %41 = icmp sgt i32 %40, 0
  br i1 %41, label %.lr.ph56.split, label %.loopexit47, !llvm.loop !6

.loopexit47:                                      ; preds = %.loopexit, %14, %7, %.split58.us, %.split.us
  ret void
}